; ModuleID = '4/2070.c'
source_filename = "4/2070.c"
target datalayout = "e-m:e-p270:32:32-p271:32:32-p272:64:64-i64:64-f80:128-n8:16:32:64-S128"
target triple = "x86_64-pc-linux-gnu"

@.str = private unnamed_addr constant [6 x i8] c"%d %d\00", align 1
@.str.1 = private unnamed_addr constant [3 x i8] c"%d\00", align 1
@.str.2 = private unnamed_addr constant [4 x i8] c"%d\0A\00", align 1

; Function Attrs: noinline nounwind uwtable
define dso_local i32 @main() #0 {
  %1 = alloca i32, align 4
  %2 = alloca i32, align 4
  %3 = alloca i32, align 4
  %4 = alloca [100 x [100 x i32]], align 16
  %5 = alloca i32, align 4
  %6 = alloca i32, align 4
  %7 = alloca i32, align 4
  %8 = alloca i32, align 4
  store i32 0, i32* %1, align 4
  %9 = call i32 (i8*, ...) @__isoc99_scanf(i8* getelementptr inbounds ([6 x i8], [6 x i8]* @.str, i64 0, i64 0), i32* %2, i32* %3)
  %10 = load i32, i32* %2, align 4
  store i32 %10, i32* %7, align 4
  %11 = load i32, i32* %7, align 4
  %12 = load i32, i32* %3, align 4
  %13 = icmp slt i32 %11, %12
  br i1 %13, label %14, label %16

14:                                               ; preds = %0
  %15 = load i32, i32* %3, align 4
  store i32 %15, i32* %7, align 4
  br label %16

16:                                               ; preds = %14, %0
  store i32 0, i32* %5, align 4
  br label %17

17:                                               ; preds = %37, %16
  %18 = load i32, i32* %5, align 4
  %19 = load i32, i32* %7, align 4
  %20 = icmp slt i32 %18, %19
  br i1 %20, label %21, label %40

21:                                               ; preds = %17
  store i32 0, i32* %6, align 4
  br label %22

22:                                               ; preds = %33, %21
  %23 = load i32, i32* %6, align 4
  %24 = load i32, i32* %7, align 4
  %25 = icmp slt i32 %23, %24
  br i1 %25, label %26, label %36

26:                                               ; preds = %22
  %27 = load i32, i32* %5, align 4
  %28 = sext i32 %27 to i64
  %29 = getelementptr inbounds [100 x [100 x i32]], [100 x [100 x i32]]* %4, i64 0, i64 %28
  %30 = load i32, i32* %6, align 4
  %31 = sext i32 %30 to i64
  %32 = getelementptr inbounds [100 x i32], [100 x i32]* %29, i64 0, i64 %31
  store i32 -1, i32* %32, align 4
  br label %33

33:                                               ; preds = %26
  %34 = load i32, i32* %6, align 4
  %35 = add nsw i32 %34, 1
  store i32 %35, i32* %6, align 4
  br label %22

36:                                               ; preds = %22
  br label %37

37:                                               ; preds = %36
  %38 = load i32, i32* %5, align 4
  %39 = add nsw i32 %38, 1
  store i32 %39, i32* %5, align 4
  br label %17

40:                                               ; preds = %17
  store i32 0, i32* %5, align 4
  br label %41

41:                                               ; preds = %62, %40
  %42 = load i32, i32* %5, align 4
  %43 = load i32, i32* %2, align 4
  %44 = icmp slt i32 %42, %43
  br i1 %44, label %45, label %65

45:                                               ; preds = %41
  store i32 0, i32* %6, align 4
  br label %46

46:                                               ; preds = %58, %45
  %47 = load i32, i32* %6, align 4
  %48 = load i32, i32* %3, align 4
  %49 = icmp slt i32 %47, %48
  br i1 %49, label %50, label %61

50:                                               ; preds = %46
  %51 = load i32, i32* %5, align 4
  %52 = sext i32 %51 to i64
  %53 = getelementptr inbounds [100 x [100 x i32]], [100 x [100 x i32]]* %4, i64 0, i64 %52
  %54 = load i32, i32* %6, align 4
  %55 = sext i32 %54 to i64
  %56 = getelementptr inbounds [100 x i32], [100 x i32]* %53, i64 0, i64 %55
  %57 = call i32 (i8*, ...) @__isoc99_scanf(i8* getelementptr inbounds ([3 x i8], [3 x i8]* @.str.1, i64 0, i64 0), i32* %56)
  br label %58

58:                                               ; preds = %50
  %59 = load i32, i32* %6, align 4
  %60 = add nsw i32 %59, 1
  store i32 %60, i32* %6, align 4
  br label %46

61:                                               ; preds = %46
  br label %62

62:                                               ; preds = %61
  %63 = load i32, i32* %5, align 4
  %64 = add nsw i32 %63, 1
  store i32 %64, i32* %5, align 4
  br label %41

65:                                               ; preds = %41
  %66 = load i32, i32* %7, align 4
  %67 = icmp eq i32 %66, 1
  br i1 %67, label %68, label %73

68:                                               ; preds = %65
  %69 = getelementptr inbounds [100 x [100 x i32]], [100 x [100 x i32]]* %4, i64 0, i64 0
  %70 = getelementptr inbounds [100 x i32], [100 x i32]* %69, i64 0, i64 0
  %71 = load i32, i32* %70, align 16
  %72 = call i32 (i8*, ...) @printf(i8* getelementptr inbounds ([3 x i8], [3 x i8]* @.str.1, i64 0, i64 0), i32 %71)
  br label %180

73:                                               ; preds = %65
  store i32 0, i32* %5, align 4
  store i32 0, i32* %6, align 4
  br label %74

74:                                               ; preds = %107, %73
  %75 = load i32, i32* %6, align 4
  %76 = load i32, i32* %7, align 4
  %77 = icmp slt i32 %75, %76
  br i1 %77, label %78, label %108

78:                                               ; preds = %74
  %79 = load i32, i32* %5, align 4
  %80 = sext i32 %79 to i64
  %81 = getelementptr inbounds [100 x [100 x i32]], [100 x [100 x i32]]* %4, i64 0, i64 %80
  %82 = load i32, i32* %6, align 4
  %83 = sext i32 %82 to i64
  %84 = getelementptr inbounds [100 x i32], [100 x i32]* %81, i64 0, i64 %83
  %85 = load i32, i32* %84, align 4
  %86 = icmp ne i32 %85, -1
  br i1 %86, label %87, label %96

87:                                               ; preds = %78
  %88 = load i32, i32* %5, align 4
  %89 = sext i32 %88 to i64
  %90 = getelementptr inbounds [100 x [100 x i32]], [100 x [100 x i32]]* %4, i64 0, i64 %89
  %91 = load i32, i32* %6, align 4
  %92 = sext i32 %91 to i64
  %93 = getelementptr inbounds [100 x i32], [100 x i32]* %90, i64 0, i64 %92
  %94 = load i32, i32* %93, align 4
  %95 = call i32 (i8*, ...) @printf(i8* getelementptr inbounds ([4 x i8], [4 x i8]* @.str.2, i64 0, i64 0), i32 %94)
  br label %96

96:                                               ; preds = %87, %78
  %97 = load i32, i32* %6, align 4
  %98 = icmp eq i32 %97, 0
  br i1 %98, label %99, label %102

99:                                               ; preds = %96
  %100 = load i32, i32* %5, align 4
  %101 = add nsw i32 %100, 1
  store i32 %101, i32* %6, align 4
  store i32 0, i32* %5, align 4
  br label %107

102:                                              ; preds = %96
  %103 = load i32, i32* %5, align 4
  %104 = add nsw i32 %103, 1
  store i32 %104, i32* %5, align 4
  %105 = load i32, i32* %6, align 4
  %106 = sub nsw i32 %105, 1
  store i32 %106, i32* %6, align 4
  br label %107

107:                                              ; preds = %102, %99
  br label %74

108:                                              ; preds = %74
  %109 = load i32, i32* %7, align 4
  %110 = sub nsw i32 %109, 1
  store i32 %110, i32* %6, align 4
  store i32 1, i32* %5, align 4
  br label %111

111:                                              ; preds = %156, %108
  %112 = load i32, i32* %5, align 4
  %113 = load i32, i32* %7, align 4
  %114 = sub nsw i32 %113, 1
  %115 = icmp ne i32 %112, %114
  br i1 %115, label %121, label %116

116:                                              ; preds = %111
  %117 = load i32, i32* %6, align 4
  %118 = load i32, i32* %7, align 4
  %119 = sub nsw i32 %118, 1
  %120 = icmp ne i32 %117, %119
  br label %121

121:                                              ; preds = %116, %111
  %122 = phi i1 [ true, %111 ], [ %120, %116 ]
  br i1 %122, label %123, label %157

123:                                              ; preds = %121
  %124 = load i32, i32* %5, align 4
  %125 = sext i32 %124 to i64
  %126 = getelementptr inbounds [100 x [100 x i32]], [100 x [100 x i32]]* %4, i64 0, i64 %125
  %127 = load i32, i32* %6, align 4
  %128 = sext i32 %127 to i64
  %129 = getelementptr inbounds [100 x i32], [100 x i32]* %126, i64 0, i64 %128
  %130 = load i32, i32* %129, align 4
  %131 = icmp ne i32 %130, -1
  br i1 %131, label %132, label %141

132:                                              ; preds = %123
  %133 = load i32, i32* %5, align 4
  %134 = sext i32 %133 to i64
  %135 = getelementptr inbounds [100 x [100 x i32]], [100 x [100 x i32]]* %4, i64 0, i64 %134
  %136 = load i32, i32* %6, align 4
  %137 = sext i32 %136 to i64
  %138 = getelementptr inbounds [100 x i32], [100 x i32]* %135, i64 0, i64 %137
  %139 = load i32, i32* %138, align 4
  %140 = call i32 (i8*, ...) @printf(i8* getelementptr inbounds ([4 x i8], [4 x i8]* @.str.2, i64 0, i64 0), i32 %139)
  br label %141

141:                                              ; preds = %132, %123
  %142 = load i32, i32* %5, align 4
  %143 = load i32, i32* %7, align 4
  %144 = sub nsw i32 %143, 1
  %145 = icmp eq i32 %142, %144
  br i1 %145, label %146, label %151

146:                                              ; preds = %141
  %147 = load i32, i32* %6, align 4
  %148 = add nsw i32 %147, 1
  store i32 %148, i32* %5, align 4
  %149 = load i32, i32* %7, align 4
  %150 = sub nsw i32 %149, 1
  store i32 %150, i32* %6, align 4
  br label %156

151:                                              ; preds = %141
  %152 = load i32, i32* %5, align 4
  %153 = add nsw i32 %152, 1
  store i32 %153, i32* %5, align 4
  %154 = load i32, i32* %6, align 4
  %155 = sub nsw i32 %154, 1
  store i32 %155, i32* %6, align 4
  br label %156

156:                                              ; preds = %151, %146
  br label %111

157:                                              ; preds = %121
  %158 = load i32, i32* %7, align 4
  %159 = sub nsw i32 %158, 1
  %160 = sext i32 %159 to i64
  %161 = getelementptr inbounds [100 x [100 x i32]], [100 x [100 x i32]]* %4, i64 0, i64 %160
  %162 = load i32, i32* %7, align 4
  %163 = sub nsw i32 %162, 1
  %164 = sext i32 %163 to i64
  %165 = getelementptr inbounds [100 x i32], [100 x i32]* %161, i64 0, i64 %164
  %166 = load i32, i32* %165, align 4
  %167 = icmp ne i32 %166, -1
  br i1 %167, label %168, label %179

168:                                              ; preds = %157
  %169 = load i32, i32* %7, align 4
  %170 = sub nsw i32 %169, 1
  %171 = sext i32 %170 to i64
  %172 = getelementptr inbounds [100 x [100 x i32]], [100 x [100 x i32]]* %4, i64 0, i64 %171
  %173 = load i32, i32* %7, align 4
  %174 = sub nsw i32 %173, 1
  %175 = sext i32 %174 to i64
  %176 = getelementptr inbounds [100 x i32], [100 x i32]* %172, i64 0, i64 %175
  %177 = load i32, i32* %176, align 4
  %178 = call i32 (i8*, ...) @printf(i8* getelementptr inbounds ([4 x i8], [4 x i8]* @.str.2, i64 0, i64 0), i32 %177)
  br label %179

179:                                              ; preds = %168, %157
  br label %180

180:                                              ; preds = %179, %68
  ret i32 0
}

declare dso_local i32 @__isoc99_scanf(i8*, ...) #1

declare dso_local i32 @printf(i8*, ...) #1


!llvm.module.flags = !{!0}
!llvm.ident = !{!1}

!0 = !{i32 1, !"wchar_size", i32 4}
!1 = !{!"clang version 10.0.0-4ubuntu1 "}
